; Function Attrs: mustprogress nounwind uwtable
define dso_local void @_ZNK4llvm13PMDataManager17dumpPassArgumentsEv(ptr noundef nonnull align 8 dereferenceable(380) %0) local_unnamed_addr #0 align 2 {
  %2 = getelementptr inbounds nuw i8, ptr %0, i64 16
  %3 = load ptr, ptr %2, align 8
  %4 = tail call noundef i64 @_ZNK4llvm15SmallVectorBaseIjE4sizeEv(ptr noundef nonnull align 8 dereferenceable(16) %2) #27
  %5 = getelementptr inbounds ptr, ptr %3, i64 %4
  %.not17 = icmp eq i64 %4, 0
  br i1 %.not17, label %._crit_edge, label %.lr.ph

.lr.ph:                                           ; preds = %1
  %6 = getelementptr inbounds nuw i8, ptr %0, i64 8
  br label %7

7:                                                ; preds = %.lr.ph, %_ZN4llvm11raw_ostreamlsENS_9StringRefE.exit
  %.018 = phi ptr [ %3, %.lr.ph ], [ %49, %_ZN4llvm11raw_ostreamlsENS_9StringRefE.exit ]
  %8 = load ptr, ptr %.018, align 8
  %9 = load ptr, ptr %8, align 8
  %10 = getelementptr inbounds i8, ptr %9, i64 112
  %11 = load ptr, ptr %10, align 8
  %12 = tail call noundef ptr %11(ptr noundef nonnull align 8 dereferenceable(28) %8) #27
  %.not15 = icmp eq ptr %12, null
  br i1 %.not15, label %14, label %13

13:                                               ; preds = %7
  tail call void @_ZNK4llvm13PMDataManager17dumpPassArgumentsEv(ptr noundef nonnull align 8 dereferenceable(380) %12)
  br label %_ZN4llvm11raw_ostreamlsENS_9StringRefE.exit

14:                                               ; preds = %7
  %15 = load ptr, ptr %6, align 8
  %16 = getelementptr inbounds nuw i8, ptr %8, i64 16
  %17 = load ptr, ptr %16, align 8
  %18 = tail call noundef ptr @_ZNK4llvm17PMTopLevelManager20findAnalysisPassInfoEPKv(ptr noundef nonnull align 8 dereferenceable(680) %15, ptr noundef %17)
  %.not16 = icmp eq ptr %18, null
  br i1 %.not16, label %_ZN4llvm11raw_ostreamlsENS_9StringRefE.exit, label %19

19:                                               ; preds = %14
  %20 = tail call noundef nonnull align 8 dereferenceable(48) ptr @_ZN4llvm4dbgsEv() #27
  %21 = getelementptr inbounds nuw i8, ptr %20, i64 24
  %22 = load ptr, ptr %21, align 8
  %23 = getelementptr inbounds nuw i8, ptr %20, i64 32
  %24 = load ptr, ptr %23, align 8
  %25 = ptrtoint ptr %22 to i64
  %26 = ptrtoint ptr %24 to i64
  %27 = sub i64 %25, %26
  %28 = icmp ult i64 %27, 2
  br i1 %28, label %29, label %31

29:                                               ; preds = %19
  %30 = tail call noundef nonnull align 8 dereferenceable(48) ptr @_ZN4llvm11raw_ostream5writeEPKcm(ptr noundef nonnull align 8 dereferenceable(48) %20, ptr noundef nonnull @.str.47, i64 noundef 2) #27
  %.phi.trans.insert = getelementptr inbounds nuw i8, ptr %30, i64 32
  %.pre = load ptr, ptr %.phi.trans.insert, align 8
  br label %_ZN4llvm11raw_ostreamlsEPKc.exit

31:                                               ; preds = %19
  store i16 11552, ptr %24, align 1
  %32 = load ptr, ptr %23, align 8
  %33 = getelementptr inbounds i8, ptr %32, i64 2
  store ptr %33, ptr %23, align 8
  br label %_ZN4llvm11raw_ostreamlsEPKc.exit

_ZN4llvm11raw_ostreamlsEPKc.exit:                 ; preds = %29, %31
  %34 = phi ptr [ %.pre, %29 ], [ %33, %31 ]
  %.0.i.i = phi ptr [ %30, %29 ], [ %20, %31 ]
  %35 = getelementptr inbounds nuw i8, ptr %18, i64 16
  %.sroa.0.0.copyload.i = load ptr, ptr %35, align 8
  %.sroa.2.0..sroa_idx.i = getelementptr inbounds i8, ptr %18, i64 24
  %.sroa.2.0.copyload.i = load i64, ptr %.sroa.2.0..sroa_idx.i, align 8
  %36 = getelementptr inbounds nuw i8, ptr %.0.i.i, i64 24
  %37 = load ptr, ptr %36, align 8
  %38 = getelementptr inbounds nuw i8, ptr %.0.i.i, i64 32
  %39 = ptrtoint ptr %37 to i64
  %40 = ptrtoint ptr %34 to i64
  %41 = sub i64 %39, %40
  %42 = icmp ugt i64 %.sroa.2.0.copyload.i, %41
  br i1 %42, label %43, label %45

43:                                               ; preds = %_ZN4llvm11raw_ostreamlsEPKc.exit
  %44 = tail call noundef nonnull align 8 dereferenceable(48) ptr @_ZN4llvm11raw_ostream5writeEPKcm(ptr noundef nonnull align 8 dereferenceable(48) %.0.i.i, ptr noundef %.sroa.0.0.copyload.i, i64 noundef %.sroa.2.0.copyload.i) #27
  br label %_ZN4llvm11raw_ostreamlsENS_9StringRefE.exit

45:                                               ; preds = %_ZN4llvm11raw_ostreamlsEPKc.exit
  %.not.i = icmp eq i64 %.sroa.2.0.copyload.i, 0
  br i1 %.not.i, label %_ZN4llvm11raw_ostreamlsENS_9StringRefE.exit, label %46

46:                                               ; preds = %45
  tail call void @llvm.memcpy.p0.p0.i64(ptr align 1 %34, ptr align 1 %.sroa.0.0.copyload.i, i64 %.sroa.2.0.copyload.i, i1 false)
  %47 = load ptr, ptr %38, align 8
  %48 = getelementptr inbounds i8, ptr %47, i64 %.sroa.2.0.copyload.i
  store ptr %48, ptr %38, align 8
  br label %_ZN4llvm11raw_ostreamlsENS_9StringRefE.exit

_ZN4llvm11raw_ostreamlsENS_9StringRefE.exit:      ; preds = %46, %45, %43, %13, %14
  %49 = getelementptr inbounds i8, ptr %.018, i64 8
  %.not = icmp eq ptr %49, %5
  br i1 %.not, label %._crit_edge, label %7

._crit_edge:                                      ; preds = %_ZN4llvm11raw_ostreamlsENS_9StringRefE.exit, %1
  ret void
}